; Function Attrs: mustprogress uwtable
define void @_ZN6icu_7716ICULocaleServiceC2Ev(ptr noundef nonnull align 8 dereferenceable(408) %0) unnamed_addr #1 align 2 personality ptr @__gxx_personality_v0 {
  tail call void @_ZN6icu_7710ICUServiceC2Ev(ptr noundef nonnull align 8 dereferenceable(120) %0)
  store ptr getelementptr inbounds nuw inrange(-16, 192) (i8, ptr @_ZTVN6icu_7716ICULocaleServiceE, i64 16), ptr %0, align 8, !tbaa !15
  %2 = invoke noundef nonnull align 8 dereferenceable(217) ptr @_ZN6icu_776Locale10getDefaultEv()
          to label %3 unwind label %8

3:                                                ; preds = %1
  %4 = getelementptr inbounds nuw i8, ptr %0, i64 120
  invoke void @_ZN6icu_776LocaleC1ERKS0_(ptr noundef nonnull align 8 dereferenceable(217) %4, ptr noundef nonnull align 8 dereferenceable(217) %2)
          to label %5 unwind label %8

5:                                                ; preds = %3
  %6 = getelementptr inbounds nuw i8, ptr %0, i64 344
  store ptr getelementptr inbounds nuw inrange(-16, 88) (i8, ptr @_ZTVN6icu_7713UnicodeStringE, i64 16), ptr %6, align 8, !tbaa !15
  %7 = getelementptr inbounds nuw i8, ptr %0, i64 352
  store i16 2, ptr %7, align 8, !tbaa !17
  ret void

8:                                                ; preds = %3, %1
  %9 = landingpad { ptr, i32 }
          cleanup
  tail call void @_ZN6icu_7710ICUServiceD2Ev(ptr noundef nonnull align 8 dereferenceable(120) %0) #15
  resume { ptr, i32 } %9
}